; ModuleID = '13/1299.c'
source_filename = "13/1299.c"
target datalayout = "e-m:e-p270:32:32-p271:32:32-p272:64:64-i64:64-f80:128-n8:16:32:64-S128"
target triple = "x86_64-pc-linux-gnu"

@.str = private unnamed_addr constant [3 x i8] c"%d\00", align 1
@.str.1 = private unnamed_addr constant [4 x i8] c"%d \00", align 1

; Function Attrs: noinline nounwind uwtable
define dso_local i32 @main() #0 {
  %1 = alloca i32, align 4
  %2 = alloca i32, align 4
  %3 = alloca [20002 x i32], align 16
  %4 = alloca i32, align 4
  %5 = alloca i32, align 4
  %6 = alloca i32, align 4
  %7 = alloca i32, align 4
  store i32 0, i32* %1, align 4
  %8 = call i32 (i8*, ...) @__isoc99_scanf(i8* getelementptr inbounds ([3 x i8], [3 x i8]* @.str, i64 0, i64 0), i32* %2)
  store i32 1, i32* %4, align 4
  br label %9

9:                                                ; preds = %18, %0
  %10 = load i32, i32* %4, align 4
  %11 = load i32, i32* %2, align 4
  %12 = icmp sle i32 %10, %11
  br i1 %12, label %13, label %21

13:                                               ; preds = %9
  %14 = load i32, i32* %4, align 4
  %15 = sext i32 %14 to i64
  %16 = getelementptr inbounds [20002 x i32], [20002 x i32]* %3, i64 0, i64 %15
  %17 = call i32 (i8*, ...) @__isoc99_scanf(i8* getelementptr inbounds ([3 x i8], [3 x i8]* @.str, i64 0, i64 0), i32* %16)
  br label %18

18:                                               ; preds = %13
  %19 = load i32, i32* %4, align 4
  %20 = add nsw i32 %19, 1
  store i32 %20, i32* %4, align 4
  br label %9

21:                                               ; preds = %9
  %22 = load i32, i32* %2, align 4
  store i32 %22, i32* %7, align 4
  store i32 1, i32* %4, align 4
  br label %23

23:                                               ; preds = %50, %21
  %24 = load i32, i32* %4, align 4
  %25 = load i32, i32* %2, align 4
  %26 = icmp sle i32 %24, %25
  br i1 %26, label %27, label %53

27:                                               ; preds = %23
  store i32 1, i32* %5, align 4
  br label %28

28:                                               ; preds = %46, %27
  %29 = load i32, i32* %5, align 4
  %30 = load i32, i32* %4, align 4
  %31 = icmp slt i32 %29, %30
  br i1 %31, label %32, label %49

32:                                               ; preds = %28
  %33 = load i32, i32* %5, align 4
  %34 = sext i32 %33 to i64
  %35 = getelementptr inbounds [20002 x i32], [20002 x i32]* %3, i64 0, i64 %34
  %36 = load i32, i32* %35, align 4
  %37 = load i32, i32* %4, align 4
  %38 = sext i32 %37 to i64
  %39 = getelementptr inbounds [20002 x i32], [20002 x i32]* %3, i64 0, i64 %38
  %40 = load i32, i32* %39, align 4
  %41 = icmp eq i32 %36, %40
  br i1 %41, label %42, label %45

42:                                               ; preds = %32
  %43 = load i32, i32* %7, align 4
  %44 = add nsw i32 %43, -1
  store i32 %44, i32* %7, align 4
  br label %49

45:                                               ; preds = %32
  br label %46

46:                                               ; preds = %45
  %47 = load i32, i32* %5, align 4
  %48 = add nsw i32 %47, 1
  store i32 %48, i32* %5, align 4
  br label %28

49:                                               ; preds = %42, %28
  br label %50

50:                                               ; preds = %49
  %51 = load i32, i32* %4, align 4
  %52 = add nsw i32 %51, 1
  store i32 %52, i32* %4, align 4
  br label %23

53:                                               ; preds = %23
  store i32 1, i32* %6, align 4
  store i32 1, i32* %4, align 4
  br label %54

54:                                               ; preds = %106, %53
  %55 = load i32, i32* %4, align 4
  %56 = load i32, i32* %2, align 4
  %57 = icmp sle i32 %55, %56
  br i1 %57, label %58, label %109

58:                                               ; preds = %54
  store i32 1, i32* %5, align 4
  br label %59

59:                                               ; preds = %75, %58
  %60 = load i32, i32* %5, align 4
  %61 = load i32, i32* %4, align 4
  %62 = icmp slt i32 %60, %61
  br i1 %62, label %63, label %78

63:                                               ; preds = %59
  %64 = load i32, i32* %5, align 4
  %65 = sext i32 %64 to i64
  %66 = getelementptr inbounds [20002 x i32], [20002 x i32]* %3, i64 0, i64 %65
  %67 = load i32, i32* %66, align 4
  %68 = load i32, i32* %4, align 4
  %69 = sext i32 %68 to i64
  %70 = getelementptr inbounds [20002 x i32], [20002 x i32]* %3, i64 0, i64 %69
  %71 = load i32, i32* %70, align 4
  %72 = icmp eq i32 %67, %71
  br i1 %72, label %73, label %74

73:                                               ; preds = %63
  store i32 0, i32* %6, align 4
  br label %74

74:                                               ; preds = %73, %63
  br label %75

75:                                               ; preds = %74
  %76 = load i32, i32* %5, align 4
  %77 = add nsw i32 %76, 1
  store i32 %77, i32* %5, align 4
  br label %59

78:                                               ; preds = %59
  %79 = load i32, i32* %6, align 4
  %80 = icmp eq i32 %79, 1
  br i1 %80, label %81, label %92

81:                                               ; preds = %78
  %82 = load i32, i32* %7, align 4
  %83 = icmp ne i32 %82, 1
  br i1 %83, label %84, label %92

84:                                               ; preds = %81
  %85 = load i32, i32* %4, align 4
  %86 = sext i32 %85 to i64
  %87 = getelementptr inbounds [20002 x i32], [20002 x i32]* %3, i64 0, i64 %86
  %88 = load i32, i32* %87, align 4
  %89 = call i32 (i8*, ...) @printf(i8* getelementptr inbounds ([4 x i8], [4 x i8]* @.str.1, i64 0, i64 0), i32 %88)
  %90 = load i32, i32* %7, align 4
  %91 = add nsw i32 %90, -1
  store i32 %91, i32* %7, align 4
  br label %105

92:                                               ; preds = %81, %78
  %93 = load i32, i32* %6, align 4
  %94 = icmp eq i32 %93, 1
  br i1 %94, label %95, label %104

95:                                               ; preds = %92
  %96 = load i32, i32* %7, align 4
  %97 = icmp eq i32 %96, 1
  br i1 %97, label %98, label %104

98:                                               ; preds = %95
  %99 = load i32, i32* %4, align 4
  %100 = sext i32 %99 to i64
  %101 = getelementptr inbounds [20002 x i32], [20002 x i32]* %3, i64 0, i64 %100
  %102 = load i32, i32* %101, align 4
  %103 = call i32 (i8*, ...) @printf(i8* getelementptr inbounds ([3 x i8], [3 x i8]* @.str, i64 0, i64 0), i32 %102)
  br label %109

104:                                              ; preds = %95, %92
  br label %105

105:                                              ; preds = %104, %84
  store i32 1, i32* %6, align 4
  br label %106

106:                                              ; preds = %105
  %107 = load i32, i32* %4, align 4
  %108 = add nsw i32 %107, 1
  store i32 %108, i32* %4, align 4
  br label %54

109:                                              ; preds = %98, %54
  %110 = call i32 (i8*, ...) @__isoc99_scanf(i8* getelementptr inbounds ([3 x i8], [3 x i8]* @.str, i64 0, i64 0), i32* %2)
  ret i32 0
}

declare dso_local i32 @__isoc99_scanf(i8*, ...) #1

declare dso_local i32 @printf(i8*, ...) #1


!llvm.module.flags = !{!0}
!llvm.ident = !{!1}

!0 = !{i32 1, !"wchar_size", i32 4}
!1 = !{!"clang version 10.0.0-4ubuntu1 "}
